target datalayout = "e-m:e-p270:32:32-p271:32:32-p272:64:64-i64:64-i128:128-f80:128-n8:16:32:64-S128"
target triple = "x86_64-pc-linux-gnu"

@_ZN12Dependencies9_dep_nameE = hidden global [9 x ptr] [ptr @.str.6, ptr @.str.7, ptr @.str.8, ptr @.str.9, ptr @.str.10, ptr @.str.11, ptr @.str.12, ptr @.str.13, ptr @.str.14], align 16
@.str.15 = private unnamed_addr constant [10 x i8] c"?bad-dep?\00", align 1

; Function Attrs: mustprogress nounwind uwtable
define linkonce_odr hidden noundef zeroext i1 @_ZN12Dependencies12dept_in_maskENS_7DepTypeEi(i32 noundef %0, i32 noundef %1) #1 comdat align 2 {
  %3 = alloca i32, align 4
  %4 = alloca i32, align 4
  store i32 %0, ptr %3, align 4
  store i32 %1, ptr %4, align 4
  %5 = load i32, ptr %3, align 4
  %6 = icmp sge i32 %5, 0
  br i1 %6, label %7, label %16

7:                                                ; preds = %2
  %8 = load i32, ptr %3, align 4
  %9 = icmp slt i32 %8, 9
  br i1 %9, label %10, label %16

10:                                               ; preds = %7
  %11 = load i32, ptr %3, align 4
  %12 = shl i32 1, %11
  %13 = load i32, ptr %4, align 4
  %14 = and i32 %12, %13
  %15 = icmp ne i32 %14, 0
  br label %16

16:                                               ; preds = %10, %7, %2
  %17 = phi i1 [ false, %7 ], [ false, %2 ], [ %15, %10 ]
  ret i1 %17
}

; Function Attrs: mustprogress nounwind uwtable
define hidden noundef ptr @_ZN12Dependencies8dep_nameENS_7DepTypeE(i32 noundef %0) #1 align 2 {
  %2 = alloca ptr, align 8
  %3 = alloca i32, align 4
  store i32 %0, ptr %3, align 4
  %4 = load i32, ptr %3, align 4
  %5 = call noundef zeroext i1 @_ZN12Dependencies12dept_in_maskENS_7DepTypeEi(i32 noundef %4, i32 noundef 510)
  br i1 %5, label %7, label %6

6:                                                ; preds = %1
  store ptr @.str.15, ptr %2, align 8
  br label %12

7:                                                ; preds = %1
  %8 = load i32, ptr %3, align 4
  %9 = zext i32 %8 to i64
  %10 = getelementptr inbounds [9 x ptr], ptr @_ZN12Dependencies9_dep_nameE, i64 0, i64 %9
  %11 = load ptr, ptr %10, align 8
  store ptr %11, ptr %2, align 8
  br label %12

12:                                               ; preds = %7, %6
  %13 = load ptr, ptr %2, align 8
  ret ptr %13
}