; Function Attrs: mustprogress nofree norecurse nosync nounwind willreturn memory(read, argmem: none, inaccessiblemem: none) uwtable
define hidden noundef ptr @_ZN12Dependencies8dep_nameENS_7DepTypeE(i32 noundef %0) local_unnamed_addr #4 align 2 {
  %or.cond.i = icmp ult i32 %0, 9
  %2 = shl nuw nsw i32 1, %0
  %3 = and i32 %2, 510
  %4 = icmp ne i32 %3, 0
  %5 = select i1 %or.cond.i, i1 %4, i1 false
  br i1 %5, label %6, label %10

6:                                                ; preds = %1
  %7 = zext nneg i32 %0 to i64
  %8 = getelementptr inbounds [9 x ptr], ptr @_ZN12Dependencies9_dep_nameE, i64 0, i64 %7
  %9 = load ptr, ptr %8, align 8
  br label %10

10:                                               ; preds = %1, %6
  %.0 = phi ptr [ %9, %6 ], [ @.str.15, %1 ]
  ret ptr %.0
}